; Function Attrs: nounwind uwtable
define range(i32 -1, 1) i32 @H5HF__hdr_dirty(ptr noundef %0) local_unnamed_addr #0 {
  %2 = load i8, ptr @H5HF_init_g, align 1, !tbaa !3, !range !7, !noundef !8
  %3 = trunc nuw i8 %2 to i1
  %4 = load i8, ptr @H5_libterm_g, align 1, !range !7
  %5 = trunc nuw i8 %4 to i1
  %6 = xor i1 %5, true
  %7 = select i1 %3, i1 true, i1 %6
  br i1 %7, label %8, label %27, !prof !9

8:                                                ; preds = %1
  %9 = getelementptr inbounds nuw i8, ptr %0, i64 252
  %10 = load i32, ptr %9, align 4, !tbaa !61
  %.not = icmp eq i32 %10, 0
  br i1 %.not, label %20, label %11

11:                                               ; preds = %8
  %12 = getelementptr inbounds nuw i8, ptr %0, i64 584
  %13 = load i64, ptr %12, align 8, !tbaa !62
  %14 = tail call i32 @H5AC_resize_entry(ptr noundef nonnull %0, i64 noundef %13) #7
  %15 = icmp slt i32 %14, 0
  br i1 %15, label %16, label %20

16:                                               ; preds = %11
  %17 = load i64, ptr @H5E_HEAP_g, align 8, !tbaa !10
  %18 = load i64, ptr @H5E_CANTRESIZE_g, align 8, !tbaa !10
  %19 = tail call i32 (ptr, ptr, i32, i64, i64, ptr, ...) @H5E_printf_stack(ptr noundef nonnull @.str, ptr noundef nonnull @__func__.H5HF__hdr_dirty, i32 noundef 661, i64 noundef %17, i64 noundef %18, ptr noundef nonnull @.str.24) #7
  br label %27

20:                                               ; preds = %11, %8
  %21 = tail call i32 @H5AC_mark_entry_dirty(ptr noundef nonnull %0) #7
  %22 = icmp slt i32 %21, 0
  br i1 %22, label %23, label %27

23:                                               ; preds = %20
  %24 = load i64, ptr @H5E_HEAP_g, align 8, !tbaa !10
  %25 = load i64, ptr @H5E_CANTMARKDIRTY_g, align 8, !tbaa !10
  %26 = tail call i32 (ptr, ptr, i32, i64, i64, ptr, ...) @H5E_printf_stack(ptr noundef nonnull @.str, ptr noundef nonnull @__func__.H5HF__hdr_dirty, i32 noundef 665, i64 noundef %24, i64 noundef %25, ptr noundef nonnull @.str.25) #7
  br label %27

27:                                               ; preds = %16, %23, %20, %1
  %.0 = phi i32 [ -1, %16 ], [ -1, %23 ], [ 0, %20 ], [ 0, %1 ]
  ret i32 %.0
}